target datalayout = "e-m:e-p270:32:32-p271:32:32-p272:64:64-i64:64-i128:128-f80:128-n8:16:32:64-S128"
target triple = "x86_64-unknown-linux-gnu"

; Function Attrs: mustprogress nounwind uwtable
define linkonce_odr dso_local noundef float @_ZN7msdfgen3maxIfEET_S1_S1_(float noundef %a, float noundef %b) #2 comdat {
entry:
  %a.addr = alloca float, align 4
  %b.addr = alloca float, align 4
  store float %a, ptr %a.addr, align 4
  store float %b, ptr %b.addr, align 4
  %0 = load float, ptr %a.addr, align 4
  %1 = load float, ptr %b.addr, align 4
  %cmp = fcmp olt float %0, %1
  br i1 %cmp, label %cond.true, label %cond.false

cond.true:                                        ; preds = %entry
  %2 = load float, ptr %b.addr, align 4
  br label %cond.end

cond.false:                                       ; preds = %entry
  %3 = load float, ptr %a.addr, align 4
  br label %cond.end

cond.end:                                         ; preds = %cond.false, %cond.true
  %cond = phi float [ %2, %cond.true ], [ %3, %cond.false ]
  ret float %cond
}

; Function Attrs: mustprogress nounwind uwtable
define linkonce_odr dso_local noundef float @_ZN7msdfgen3minIfEET_S1_S1_(float noundef %a, float noundef %b) #2 comdat {
entry:
  %a.addr = alloca float, align 4
  %b.addr = alloca float, align 4
  store float %a, ptr %a.addr, align 4
  store float %b, ptr %b.addr, align 4
  %0 = load float, ptr %b.addr, align 4
  %1 = load float, ptr %a.addr, align 4
  %cmp = fcmp olt float %0, %1
  br i1 %cmp, label %cond.true, label %cond.false

cond.true:                                        ; preds = %entry
  %2 = load float, ptr %b.addr, align 4
  br label %cond.end

cond.false:                                       ; preds = %entry
  %3 = load float, ptr %a.addr, align 4
  br label %cond.end

cond.end:                                         ; preds = %cond.false, %cond.true
  %cond = phi float [ %2, %cond.true ], [ %3, %cond.false ]
  ret float %cond
}

; Function Attrs: mustprogress uwtable
define linkonce_odr dso_local noundef float @_ZN7msdfgen6medianIfEET_S1_S1_S1_(float noundef %a, float noundef %b, float noundef %c) #0 comdat {
entry:
  %a.addr = alloca float, align 4
  %b.addr = alloca float, align 4
  %c.addr = alloca float, align 4
  store float %a, ptr %a.addr, align 4
  store float %b, ptr %b.addr, align 4
  store float %c, ptr %c.addr, align 4
  %0 = load float, ptr %a.addr, align 4
  %1 = load float, ptr %b.addr, align 4
  %call = call noundef float @_ZN7msdfgen3minIfEET_S1_S1_(float noundef %0, float noundef %1)
  %2 = load float, ptr %a.addr, align 4
  %3 = load float, ptr %b.addr, align 4
  %call1 = call noundef float @_ZN7msdfgen3maxIfEET_S1_S1_(float noundef %2, float noundef %3)
  %4 = load float, ptr %c.addr, align 4
  %call2 = call noundef float @_ZN7msdfgen3minIfEET_S1_S1_(float noundef %call1, float noundef %4)
  %call3 = call noundef float @_ZN7msdfgen3maxIfEET_S1_S1_(float noundef %call, float noundef %call2)
  ret float %call3
}

; Function Attrs: mustprogress nounwind uwtable
define linkonce_odr dso_local noundef float @_ZN7msdfgen3mixIfdEET_S1_S1_T0_(float noundef %a, float noundef %b, double noundef %weight) #2 comdat {
entry:
  %a.addr = alloca float, align 4
  %b.addr = alloca float, align 4
  %weight.addr = alloca double, align 8
  store float %a, ptr %a.addr, align 4
  store float %b, ptr %b.addr, align 4
  store double %weight, ptr %weight.addr, align 8
  %0 = load double, ptr %weight.addr, align 8
  %sub = fsub double 1.000000e+00, %0
  %1 = load float, ptr %a.addr, align 4
  %conv = fpext float %1 to double
  %2 = load double, ptr %weight.addr, align 8
  %3 = load float, ptr %b.addr, align 4
  %conv1 = fpext float %3 to double
  %mul2 = fmul double %2, %conv1
  %4 = call double @llvm.fmuladd.f64(double %sub, double %conv, double %mul2)
  %conv3 = fptrunc double %4 to float
  ret float %conv3
}

; Function Attrs: mustprogress uwtable
define internal noundef zeroext i1 @_ZN7msdfgenL24edgeBetweenTexelsChannelEPKfS1_i(ptr noundef %a, ptr noundef %b, i32 noundef %channel) #0 {
entry:
  %retval = alloca i1, align 1
  %a.addr = alloca ptr, align 8
  %b.addr = alloca ptr, align 8
  %channel.addr = alloca i32, align 4
  %t = alloca double, align 8
  %c = alloca [3 x float], align 4
  store ptr %a, ptr %a.addr, align 8
  store ptr %b, ptr %b.addr, align 8
  store i32 %channel, ptr %channel.addr, align 4
  %0 = load ptr, ptr %a.addr, align 8
  %1 = load i32, ptr %channel.addr, align 4
  %idxprom = sext i32 %1 to i64
  %arrayidx = getelementptr inbounds float, ptr %0, i64 %idxprom
  %2 = load float, ptr %arrayidx, align 4
  %conv = fpext float %2 to double
  %sub = fsub double %conv, 5.000000e-01
  %3 = load ptr, ptr %a.addr, align 8
  %4 = load i32, ptr %channel.addr, align 4
  %idxprom1 = sext i32 %4 to i64
  %arrayidx2 = getelementptr inbounds float, ptr %3, i64 %idxprom1
  %5 = load float, ptr %arrayidx2, align 4
  %6 = load ptr, ptr %b.addr, align 8
  %7 = load i32, ptr %channel.addr, align 4
  %idxprom3 = sext i32 %7 to i64
  %arrayidx4 = getelementptr inbounds float, ptr %6, i64 %idxprom3
  %8 = load float, ptr %arrayidx4, align 4
  %sub5 = fsub float %5, %8
  %conv6 = fpext float %sub5 to double
  %div = fdiv double %sub, %conv6
  store double %div, ptr %t, align 8
  %9 = load double, ptr %t, align 8
  %cmp = fcmp ogt double %9, 0.000000e+00
  br i1 %cmp, label %land.lhs.true, label %if.end

land.lhs.true:                                    ; preds = %entry
  %10 = load double, ptr %t, align 8
  %cmp7 = fcmp olt double %10, 1.000000e+00
  br i1 %cmp7, label %if.then, label %if.end

if.then:                                          ; preds = %land.lhs.true
  %arrayinit.begin = getelementptr inbounds [3 x float], ptr %c, i64 0, i64 0
  %11 = load ptr, ptr %a.addr, align 8
  %arrayidx8 = getelementptr inbounds float, ptr %11, i64 0
  %12 = load float, ptr %arrayidx8, align 4
  %13 = load ptr, ptr %b.addr, align 8
  %arrayidx9 = getelementptr inbounds float, ptr %13, i64 0
  %14 = load float, ptr %arrayidx9, align 4
  %15 = load double, ptr %t, align 8
  %call = call noundef float @_ZN7msdfgen3mixIfdEET_S1_S1_T0_(float noundef %12, float noundef %14, double noundef %15)
  store float %call, ptr %arrayinit.begin, align 4
  %arrayinit.element = getelementptr inbounds float, ptr %arrayinit.begin, i64 1
  %16 = load ptr, ptr %a.addr, align 8
  %arrayidx10 = getelementptr inbounds float, ptr %16, i64 1
  %17 = load float, ptr %arrayidx10, align 4
  %18 = load ptr, ptr %b.addr, align 8
  %arrayidx11 = getelementptr inbounds float, ptr %18, i64 1
  %19 = load float, ptr %arrayidx11, align 4
  %20 = load double, ptr %t, align 8
  %call12 = call noundef float @_ZN7msdfgen3mixIfdEET_S1_S1_T0_(float noundef %17, float noundef %19, double noundef %20)
  store float %call12, ptr %arrayinit.element, align 4
  %arrayinit.element13 = getelementptr inbounds float, ptr %arrayinit.element, i64 1
  %21 = load ptr, ptr %a.addr, align 8
  %arrayidx14 = getelementptr inbounds float, ptr %21, i64 2
  %22 = load float, ptr %arrayidx14, align 4
  %23 = load ptr, ptr %b.addr, align 8
  %arrayidx15 = getelementptr inbounds float, ptr %23, i64 2
  %24 = load float, ptr %arrayidx15, align 4
  %25 = load double, ptr %t, align 8
  %call16 = call noundef float @_ZN7msdfgen3mixIfdEET_S1_S1_T0_(float noundef %22, float noundef %24, double noundef %25)
  store float %call16, ptr %arrayinit.element13, align 4
  %arrayidx17 = getelementptr inbounds [3 x float], ptr %c, i64 0, i64 0
  %26 = load float, ptr %arrayidx17, align 4
  %arrayidx18 = getelementptr inbounds [3 x float], ptr %c, i64 0, i64 1
  %27 = load float, ptr %arrayidx18, align 4
  %arrayidx19 = getelementptr inbounds [3 x float], ptr %c, i64 0, i64 2
  %28 = load float, ptr %arrayidx19, align 4
  %call20 = call noundef float @_ZN7msdfgen6medianIfEET_S1_S1_S1_(float noundef %26, float noundef %27, float noundef %28)
  %29 = load i32, ptr %channel.addr, align 4
  %idxprom21 = sext i32 %29 to i64
  %arrayidx22 = getelementptr inbounds [3 x float], ptr %c, i64 0, i64 %idxprom21
  %30 = load float, ptr %arrayidx22, align 4
  %cmp23 = fcmp oeq float %call20, %30
  store i1 %cmp23, ptr %retval, align 1
  br label %return

if.end:                                           ; preds = %land.lhs.true, %entry
  store i1 false, ptr %retval, align 1
  br label %return

return:                                           ; preds = %if.end, %if.then
  %31 = load i1, ptr %retval, align 1
  ret i1 %31
}

; Function Attrs: mustprogress uwtable
define internal noundef i32 @_ZN7msdfgenL17edgeBetweenTexelsEPKfS1_(ptr noundef %a, ptr noundef %b) #0 {
entry:
  %a.addr = alloca ptr, align 8
  %b.addr = alloca ptr, align 8
  store ptr %a, ptr %a.addr, align 8
  store ptr %b, ptr %b.addr, align 8
  %0 = load ptr, ptr %a.addr, align 8
  %1 = load ptr, ptr %b.addr, align 8
  %call = call noundef zeroext i1 @_ZN7msdfgenL24edgeBetweenTexelsChannelEPKfS1_i(ptr noundef %0, ptr noundef %1, i32 noundef 0)
  %conv = zext i1 %call to i32
  %mul = mul nsw i32 1, %conv
  %2 = load ptr, ptr %a.addr, align 8
  %3 = load ptr, ptr %b.addr, align 8
  %call1 = call noundef zeroext i1 @_ZN7msdfgenL24edgeBetweenTexelsChannelEPKfS1_i(ptr noundef %2, ptr noundef %3, i32 noundef 1)
  %conv2 = zext i1 %call1 to i32
  %mul3 = mul nsw i32 2, %conv2
  %add = add nsw i32 %mul, %mul3
  %4 = load ptr, ptr %a.addr, align 8
  %5 = load ptr, ptr %b.addr, align 8
  %call4 = call noundef zeroext i1 @_ZN7msdfgenL24edgeBetweenTexelsChannelEPKfS1_i(ptr noundef %4, ptr noundef %5, i32 noundef 2)
  %conv5 = zext i1 %call4 to i32
  %mul6 = mul nsw i32 4, %conv5
  %add7 = add nsw i32 %add, %mul6
  ret i32 %add7
}