; Function Attrs: mustprogress nofree norecurse nosync nounwind willreturn memory(argmem: read) uwtable
define internal fastcc noundef range(i32 0, 8) i32 @_ZN7msdfgenL17edgeBetweenTexelsEPKfS1_(ptr noundef readonly captures(none) %a, ptr noundef readonly captures(none) %b) unnamed_addr #3 {
entry:
  %0 = load float, ptr %a, align 4
  %conv.i = fpext float %0 to double
  %sub.i = fadd double %conv.i, -5.000000e-01
  %1 = load float, ptr %b, align 4
  %sub5.i = fsub float %0, %1
  %conv6.i = fpext float %sub5.i to double
  %div.i = fdiv double %sub.i, %conv6.i
  %cmp.i = fcmp ogt double %div.i, 0.000000e+00
  %cmp7.i = fcmp olt double %div.i, 1.000000e+00
  %or.cond.i = and i1 %cmp.i, %cmp7.i
  br i1 %or.cond.i, label %if.then.i, label %entry._ZN7msdfgenL24edgeBetweenTexelsChannelEPKfS1_i.exit_crit_edge

entry._ZN7msdfgenL24edgeBetweenTexelsChannelEPKfS1_i.exit_crit_edge: ; preds = %entry
  %arrayidx.i.phi.trans.insert = getelementptr inbounds nuw i8, ptr %a, i64 4
  %.pre = load float, ptr %arrayidx.i.phi.trans.insert, align 4
  %arrayidx4.i.phi.trans.insert = getelementptr inbounds nuw i8, ptr %b, i64 4
  %.pre94 = load float, ptr %arrayidx4.i.phi.trans.insert, align 4
  %.pre97 = fpext float %.pre to double
  br label %_ZN7msdfgenL24edgeBetweenTexelsChannelEPKfS1_i.exit

if.then.i:                                        ; preds = %entry
  %sub.i.i = fsub double 1.000000e+00, %div.i
  %conv1.i.i = fpext float %1 to double
  %mul2.i.i = fmul double %div.i, %conv1.i.i
  %2 = tail call double @llvm.fmuladd.f64(double %sub.i.i, double %conv.i, double %mul2.i.i)
  %conv3.i.i = fptrunc double %2 to float
  %arrayidx10.i = getelementptr inbounds nuw i8, ptr %a, i64 4
  %3 = load float, ptr %arrayidx10.i, align 4
  %arrayidx11.i = getelementptr inbounds nuw i8, ptr %b, i64 4
  %4 = load float, ptr %arrayidx11.i, align 4
  %conv.i16.i = fpext float %3 to double
  %conv1.i17.i = fpext float %4 to double
  %mul2.i18.i = fmul double %div.i, %conv1.i17.i
  %5 = tail call double @llvm.fmuladd.f64(double %sub.i.i, double %conv.i16.i, double %mul2.i18.i)
  %conv3.i19.i = fptrunc double %5 to float
  %arrayidx14.i = getelementptr inbounds nuw i8, ptr %a, i64 8
  %6 = load float, ptr %arrayidx14.i, align 4
  %arrayidx15.i = getelementptr inbounds nuw i8, ptr %b, i64 8
  %7 = load float, ptr %arrayidx15.i, align 4
  %conv.i21.i = fpext float %6 to double
  %conv1.i22.i = fpext float %7 to double
  %mul2.i23.i = fmul double %div.i, %conv1.i22.i
  %8 = tail call double @llvm.fmuladd.f64(double %sub.i.i, double %conv.i21.i, double %mul2.i23.i)
  %conv3.i24.i = fptrunc double %8 to float
  %cmp.i.i.i = fcmp olt float %conv3.i19.i, %conv3.i.i
  %cond.i.i.i = select i1 %cmp.i.i.i, float %conv3.i19.i, float %conv3.i.i
  %cmp.i3.i.i = fcmp olt float %conv3.i.i, %conv3.i19.i
  %cond.i4.i.i = select i1 %cmp.i3.i.i, float %conv3.i19.i, float %conv3.i.i
  %cmp.i5.i.i = fcmp ogt float %cond.i4.i.i, %conv3.i24.i
  %cond.i6.i.i = select i1 %cmp.i5.i.i, float %conv3.i24.i, float %cond.i4.i.i
  %cmp.i7.i.i = fcmp olt float %cond.i.i.i, %cond.i6.i.i
  %cond.i8.i.i = select i1 %cmp.i7.i.i, float %cond.i6.i.i, float %cond.i.i.i
  %cmp23.i = fcmp oeq float %cond.i8.i.i, %conv3.i.i
  %9 = zext i1 %cmp23.i to i32
  br label %_ZN7msdfgenL24edgeBetweenTexelsChannelEPKfS1_i.exit

_ZN7msdfgenL24edgeBetweenTexelsChannelEPKfS1_i.exit: ; preds = %entry._ZN7msdfgenL24edgeBetweenTexelsChannelEPKfS1_i.exit_crit_edge, %if.then.i
  %conv.i6.pre-phi = phi double [ %.pre97, %entry._ZN7msdfgenL24edgeBetweenTexelsChannelEPKfS1_i.exit_crit_edge ], [ %conv.i16.i, %if.then.i ]
  %10 = phi float [ %.pre94, %entry._ZN7msdfgenL24edgeBetweenTexelsChannelEPKfS1_i.exit_crit_edge ], [ %4, %if.then.i ]
  %11 = phi float [ %.pre, %entry._ZN7msdfgenL24edgeBetweenTexelsChannelEPKfS1_i.exit_crit_edge ], [ %3, %if.then.i ]
  %retval.0.i = phi i32 [ 0, %entry._ZN7msdfgenL24edgeBetweenTexelsChannelEPKfS1_i.exit_crit_edge ], [ %9, %if.then.i ]
  %sub.i7 = fadd double %conv.i6.pre-phi, -5.000000e-01
  %sub5.i8 = fsub float %11, %10
  %conv6.i9 = fpext float %sub5.i8 to double
  %div.i10 = fdiv double %sub.i7, %conv6.i9
  %cmp.i11 = fcmp ogt double %div.i10, 0.000000e+00
  %cmp7.i12 = fcmp olt double %div.i10, 1.000000e+00
  %or.cond.i13 = and i1 %cmp.i11, %cmp7.i12
  br i1 %or.cond.i13, label %_ZN7msdfgenL24edgeBetweenTexelsChannelEPKfS1_i.exit44, label %_ZN7msdfgenL24edgeBetweenTexelsChannelEPKfS1_i.exit._ZN7msdfgenL24edgeBetweenTexelsChannelEPKfS1_i.exit44.thread_crit_edge

_ZN7msdfgenL24edgeBetweenTexelsChannelEPKfS1_i.exit._ZN7msdfgenL24edgeBetweenTexelsChannelEPKfS1_i.exit44.thread_crit_edge: ; preds = %_ZN7msdfgenL24edgeBetweenTexelsChannelEPKfS1_i.exit
  %arrayidx.i46.phi.trans.insert = getelementptr inbounds nuw i8, ptr %a, i64 8
  %.pre95 = load float, ptr %arrayidx.i46.phi.trans.insert, align 4
  %arrayidx4.i49.phi.trans.insert = getelementptr inbounds nuw i8, ptr %b, i64 8
  %.pre96 = load float, ptr %arrayidx4.i49.phi.trans.insert, align 4
  %.pre98 = fpext float %.pre95 to double
  br label %_ZN7msdfgenL24edgeBetweenTexelsChannelEPKfS1_i.exit44.thread

_ZN7msdfgenL24edgeBetweenTexelsChannelEPKfS1_i.exit44: ; preds = %_ZN7msdfgenL24edgeBetweenTexelsChannelEPKfS1_i.exit
  %sub.i.i16 = fsub double 1.000000e+00, %div.i10
  %conv1.i.i18 = fpext float %1 to double
  %mul2.i.i19 = fmul double %div.i10, %conv1.i.i18
  %12 = tail call double @llvm.fmuladd.f64(double %sub.i.i16, double %conv.i, double %mul2.i.i19)
  %conv3.i.i20 = fptrunc double %12 to float
  %conv1.i17.i25 = fpext float %10 to double
  %mul2.i18.i26 = fmul double %div.i10, %conv1.i17.i25
  %13 = tail call double @llvm.fmuladd.f64(double %sub.i.i16, double %conv.i6.pre-phi, double %mul2.i18.i26)
  %conv3.i19.i27 = fptrunc double %13 to float
  %arrayidx14.i29 = getelementptr inbounds nuw i8, ptr %a, i64 8
  %14 = load float, ptr %arrayidx14.i29, align 4
  %arrayidx15.i30 = getelementptr inbounds nuw i8, ptr %b, i64 8
  %15 = load float, ptr %arrayidx15.i30, align 4
  %conv.i21.i31 = fpext float %14 to double
  %conv1.i22.i32 = fpext float %15 to double
  %mul2.i23.i33 = fmul double %div.i10, %conv1.i22.i32
  %16 = tail call double @llvm.fmuladd.f64(double %sub.i.i16, double %conv.i21.i31, double %mul2.i23.i33)
  %conv3.i24.i34 = fptrunc double %16 to float
  %cmp.i.i.i35 = fcmp olt float %conv3.i19.i27, %conv3.i.i20
  %cond.i.i.i36 = select i1 %cmp.i.i.i35, float %conv3.i19.i27, float %conv3.i.i20
  %cmp.i3.i.i37 = fcmp olt float %conv3.i.i20, %conv3.i19.i27
  %cond.i4.i.i38 = select i1 %cmp.i3.i.i37, float %conv3.i19.i27, float %conv3.i.i20
  %cmp.i5.i.i39 = fcmp ogt float %cond.i4.i.i38, %conv3.i24.i34
  %cond.i6.i.i40 = select i1 %cmp.i5.i.i39, float %conv3.i24.i34, float %cond.i4.i.i38
  %cmp.i7.i.i41 = fcmp olt float %cond.i.i.i36, %cond.i6.i.i40
  %cond.i8.i.i42 = select i1 %cmp.i7.i.i41, float %cond.i6.i.i40, float %cond.i.i.i36
  %cmp23.i43 = fcmp oeq float %cond.i8.i.i42, %conv3.i19.i27
  %cond.fr = freeze i1 %cmp23.i43
  %spec.select = select i1 %cond.fr, i32 2, i32 0
  br label %_ZN7msdfgenL24edgeBetweenTexelsChannelEPKfS1_i.exit44.thread

_ZN7msdfgenL24edgeBetweenTexelsChannelEPKfS1_i.exit44.thread: ; preds = %_ZN7msdfgenL24edgeBetweenTexelsChannelEPKfS1_i.exit._ZN7msdfgenL24edgeBetweenTexelsChannelEPKfS1_i.exit44.thread_crit_edge, %_ZN7msdfgenL24edgeBetweenTexelsChannelEPKfS1_i.exit44
  %conv.i47.pre-phi = phi double [ %.pre98, %_ZN7msdfgenL24edgeBetweenTexelsChannelEPKfS1_i.exit._ZN7msdfgenL24edgeBetweenTexelsChannelEPKfS1_i.exit44.thread_crit_edge ], [ %conv.i21.i31, %_ZN7msdfgenL24edgeBetweenTexelsChannelEPKfS1_i.exit44 ]
  %17 = phi float [ %.pre96, %_ZN7msdfgenL24edgeBetweenTexelsChannelEPKfS1_i.exit._ZN7msdfgenL24edgeBetweenTexelsChannelEPKfS1_i.exit44.thread_crit_edge ], [ %15, %_ZN7msdfgenL24edgeBetweenTexelsChannelEPKfS1_i.exit44 ]
  %18 = phi float [ %.pre95, %_ZN7msdfgenL24edgeBetweenTexelsChannelEPKfS1_i.exit._ZN7msdfgenL24edgeBetweenTexelsChannelEPKfS1_i.exit44.thread_crit_edge ], [ %14, %_ZN7msdfgenL24edgeBetweenTexelsChannelEPKfS1_i.exit44 ]
  %19 = phi i32 [ 0, %_ZN7msdfgenL24edgeBetweenTexelsChannelEPKfS1_i.exit._ZN7msdfgenL24edgeBetweenTexelsChannelEPKfS1_i.exit44.thread_crit_edge ], [ %spec.select, %_ZN7msdfgenL24edgeBetweenTexelsChannelEPKfS1_i.exit44 ]
  %sub.i48 = fadd double %conv.i47.pre-phi, -5.000000e-01
  %sub5.i50 = fsub float %18, %17
  %conv6.i51 = fpext float %sub5.i50 to double
  %div.i52 = fdiv double %sub.i48, %conv6.i51
  %cmp.i53 = fcmp ogt double %div.i52, 0.000000e+00
  %cmp7.i54 = fcmp olt double %div.i52, 1.000000e+00
  %or.cond.i55 = and i1 %cmp.i53, %cmp7.i54
  br i1 %or.cond.i55, label %_ZN7msdfgenL24edgeBetweenTexelsChannelEPKfS1_i.exit87, label %_ZN7msdfgenL24edgeBetweenTexelsChannelEPKfS1_i.exit87.thread

_ZN7msdfgenL24edgeBetweenTexelsChannelEPKfS1_i.exit87: ; preds = %_ZN7msdfgenL24edgeBetweenTexelsChannelEPKfS1_i.exit44.thread
  %sub.i.i58 = fsub double 1.000000e+00, %div.i52
  %conv1.i.i60 = fpext float %1 to double
  %mul2.i.i61 = fmul double %div.i52, %conv1.i.i60
  %20 = tail call double @llvm.fmuladd.f64(double %sub.i.i58, double %conv.i, double %mul2.i.i61)
  %conv3.i.i62 = fptrunc double %20 to float
  %conv1.i17.i67 = fpext float %10 to double
  %mul2.i18.i68 = fmul double %div.i52, %conv1.i17.i67
  %21 = tail call double @llvm.fmuladd.f64(double %sub.i.i58, double %conv.i6.pre-phi, double %mul2.i18.i68)
  %conv3.i19.i69 = fptrunc double %21 to float
  %conv1.i22.i74 = fpext float %17 to double
  %mul2.i23.i75 = fmul double %div.i52, %conv1.i22.i74
  %22 = tail call double @llvm.fmuladd.f64(double %sub.i.i58, double %conv.i47.pre-phi, double %mul2.i23.i75)
  %conv3.i24.i76 = fptrunc double %22 to float
  %cmp.i.i.i77 = fcmp olt float %conv3.i19.i69, %conv3.i.i62
  %cond.i.i.i78 = select i1 %cmp.i.i.i77, float %conv3.i19.i69, float %conv3.i.i62
  %cmp.i3.i.i79 = fcmp olt float %conv3.i.i62, %conv3.i19.i69
  %cond.i4.i.i80 = select i1 %cmp.i3.i.i79, float %conv3.i19.i69, float %conv3.i.i62
  %cmp.i5.i.i81 = fcmp ogt float %cond.i4.i.i80, %conv3.i24.i76
  %cond.i6.i.i82 = select i1 %cmp.i5.i.i81, float %conv3.i24.i76, float %cond.i4.i.i80
  %cmp.i7.i.i83 = fcmp olt float %cond.i.i.i78, %cond.i6.i.i82
  %cond.i8.i.i84 = select i1 %cmp.i7.i.i83, float %cond.i6.i.i82, float %cond.i.i.i78
  %cmp23.i86 = fcmp oeq float %cond.i8.i.i84, %conv3.i24.i76
  %cond.fr90 = freeze i1 %cmp23.i86
  %spec.select93 = select i1 %cond.fr90, i32 4, i32 0
  br label %_ZN7msdfgenL24edgeBetweenTexelsChannelEPKfS1_i.exit87.thread

_ZN7msdfgenL24edgeBetweenTexelsChannelEPKfS1_i.exit87.thread: ; preds = %_ZN7msdfgenL24edgeBetweenTexelsChannelEPKfS1_i.exit87, %_ZN7msdfgenL24edgeBetweenTexelsChannelEPKfS1_i.exit44.thread
  %23 = phi i32 [ 0, %_ZN7msdfgenL24edgeBetweenTexelsChannelEPKfS1_i.exit44.thread ], [ %spec.select93, %_ZN7msdfgenL24edgeBetweenTexelsChannelEPKfS1_i.exit87 ]
  %add = or disjoint i32 %19, %retval.0.i
  %add7 = or disjoint i32 %add, %23
  ret i32 %add7
}